target datalayout = "e-m:e-p270:32:32-p271:32:32-p272:64:64-i64:64-i128:128-f80:128-n8:16:32:64-S128"
target triple = "x86_64-pc-linux-gnu"

%"class.ncnn::DataReader" = type { ptr }
%"class.ncnn::DataReaderFromMemory" = type { %"class.ncnn::DataReader", ptr }

; Function Attrs: mustprogress uwtable
define hidden noundef i32 @_ZN4ncnn3Net14load_param_memEPKc(ptr noundef nonnull align 8 dereferenceable(80) %0, ptr noundef %1) #1 align 2 personality ptr @__gxx_personality_v0 {
  %3 = alloca ptr, align 8
  %4 = alloca ptr, align 8
  %5 = alloca ptr, align 8
  %6 = alloca %"class.ncnn::DataReaderFromMemory", align 8
  %7 = alloca ptr, align 8
  %8 = alloca i32, align 4
  store ptr %0, ptr %3, align 8, !tbaa !4
  store ptr %1, ptr %4, align 8, !tbaa !9
  %9 = load ptr, ptr %3, align 8
  call void @llvm.lifetime.start.p0(i64 8, ptr %5) #16
  %10 = load ptr, ptr %4, align 8, !tbaa !9
  store ptr %10, ptr %5, align 8, !tbaa !9
  call void @llvm.lifetime.start.p0(i64 16, ptr %6) #16
  call void @_ZN4ncnn20DataReaderFromMemoryC1ERPKh(ptr noundef nonnull align 8 dereferenceable(16) %6, ptr noundef nonnull align 8 dereferenceable(8) %5)
  %11 = invoke noundef i32 @_ZN4ncnn3Net10load_paramERKNS_10DataReaderE(ptr noundef nonnull align 8 dereferenceable(80) %9, ptr noundef nonnull align 8 dereferenceable(8) %6)
          to label %12 unwind label %13

12:                                               ; preds = %2
  call void @_ZN4ncnn20DataReaderFromMemoryD1Ev(ptr noundef nonnull align 8 dereferenceable(16) %6) #16
  call void @llvm.lifetime.end.p0(i64 16, ptr %6) #16
  call void @llvm.lifetime.end.p0(i64 8, ptr %5) #16
  ret i32 %11

13:                                               ; preds = %2
  %14 = landingpad { ptr, i32 }
          cleanup
  %15 = extractvalue { ptr, i32 } %14, 0
  store ptr %15, ptr %7, align 8
  %16 = extractvalue { ptr, i32 } %14, 1
  store i32 %16, ptr %8, align 4
  call void @_ZN4ncnn20DataReaderFromMemoryD1Ev(ptr noundef nonnull align 8 dereferenceable(16) %6) #16
  call void @llvm.lifetime.end.p0(i64 16, ptr %6) #16
  call void @llvm.lifetime.end.p0(i64 8, ptr %5) #16
  br label %17

17:                                               ; preds = %13
  %18 = load ptr, ptr %7, align 8
  %19 = load i32, ptr %8, align 4
  %20 = insertvalue { ptr, i32 } poison, ptr %18, 0
  %21 = insertvalue { ptr, i32 } %20, i32 %19, 1
  resume { ptr, i32 } %21
}